Certificate:
    Data:
        Version: 3 (0x2)
        Serial Number:
            f9:b4:ef:92:21:2b:87:40
    Signature Algorithm: sha256WithRSAEncryption
        Issuer: C=US, ST=Georgia, O=cs6238, OU=project2, CN=p2CA
        Validity
            Not Before: Nov 29 00:49:18 2017 GMT
            Not After : Nov 29 00:49:18 2018 GMT
        Subject: C=US, ST=Georgia, L=Atlanta, O=GaTech, OU=cs6238, CN=client1
        Subject Public Key Info:
            Public Key Algorithm: rsaEncryption
                Public-Key: (2048 bit)
                Modulus:
                    00:b9:6d:38:03:aa:bb:35:de:98:33:cc:78:47:6e:
                    8f:9f:61:1e:07:83:fe:4d:61:fe:6c:c0:c1:a6:76:
                    03:cc:0d:6d:bf:3d:9c:2a:92:e5:ac:03:6e:ff:6a:
                    a0:3f:e0:90:7e:e5:ec:00:ca:78:d9:77:1d:7f:e6:
                    59:7d:27:22:78:5c:37:70:e1:6f:9c:4a:04:87:1e:
                    de:17:3a:5d:97:2e:3d:8d:54:ce:29:a6:34:73:3e:
                    88:9d:41:a3:31:a1:4f:8f:3c:3f:86:17:67:e4:75:
                    0d:9e:e4:96:98:c3:97:a4:1b:21:89:d6:60:c1:38:
                    30:af:5c:2a:ba:39:69:5f:25:bc:dd:77:a5:30:bf:
                    ac:8b:8f:c1:6b:fc:d9:f5:06:ec:91:cd:67:2c:a4:
                    86:3f:3b:3d:ed:79:f3:23:7c:16:35:ed:b9:ec:98:
                    9a:b8:8d:a7:d4:b9:f0:4c:06:da:ed:e1:43:a4:fb:
                    21:60:2f:4d:3e:48:96:bf:86:bf:f1:dc:82:15:a9:
                    45:80:93:d5:2f:ba:17:2a:27:49:36:d0:54:df:a0:
                    39:3a:3a:e7:e9:46:e6:4e:c2:70:bd:44:65:ab:2a:
                    1e:e9:50:64:91:d8:af:07:14:3e:db:b3:df:a2:fb:
                    5c:3d:64:87:3c:2c:3c:53:c8:fb:e3:40:3a:94:7c:
                    d1:ad
                Exponent: 65537 (0x10001)
        X509v3 extensions:
            X509v3 Basic Constraints: 
                CA:FALSE
            Netscape Comment: 
                OpenSSL Generated Certificate
            X509v3 Subject Key Identifier: 
                1F:82:14:30:FE:FA:2A:76:00:27:E9:F8:6F:57:CF:BF:04:2F:F8:0D
            X509v3 Authority Key Identifier: 
                keyid:5C:63:54:C5:A2:90:0C:33:76:B0:B5:44:A9:F8:C5:E2:91:2D:E9:13

    Signature Algorithm: sha256WithRSAEncryption
         9b:e7:41:9f:45:d0:ce:7d:ad:9b:20:32:ee:3a:50:86:60:6a:
         fb:3f:1c:e4:fe:a2:8a:e2:83:ac:c5:f1:25:e1:38:5e:45:c0:
         67:b8:2d:dd:53:54:10:8e:f5:1e:2a:8e:d7:71:8b:7d:b8:6e:
         59:d4:78:53:da:65:0d:a7:4f:01:94:13:43:3f:48:60:c3:67:
         f5:e7:13:2f:46:54:27:56:15:46:99:ec:66:e5:1d:ab:f8:c4:
         55:3a:d5:74:7e:67:e6:4c:ae:62:64:44:e4:55:6b:e6:f2:44:
         4c:0f:4f:21:d3:67:61:8b:c6:25:ff:cf:be:ef:80:c2:dc:36:
         7e:f7:9a:45:a9:52:b4:1a:5f:78:f6:e5:b9:e4:41:57:7e:89:
         64:44:55:69:1c:f5:1c:9f:43:62:05:2f:3d:e6:be:f5:f7:43:
         9f:21:a7:c6:a2:85:d0:f4:85:19:3d:64:3d:04:08:30:6a:a7:
         0b:6e:58:31:66:09:72:4d:15:ee:59:ef:53:4b:56:96:6f:25:
         cd:91:2a:66:c2:37:9b:d5:76:fc:a6:9c:9d:b9:59:ef:27:8a:
         d5:00:f9:5c:c3:de:76:6f:9c:13:ce:61:28:65:d1:d5:d1:b9:
         8c:74:2f:98:2e:dc:1d:88:a4:86:30:8e:19:c5:b5:bf:c5:04:
         01:aa:58:f0
-----BEGIN CERTIFICATE-----
MIIDtTCCAp2gAwIBAgIJAPm075IhK4dAMA0GCSqGSIb3DQEBCwUAMFIxCzAJBgNV
BAYTAlVTMRAwDgYDVQQIDAdHZW9yZ2lhMQ8wDQYDVQQKDAZjczYyMzgxETAPBgNV
BAsMCHByb2plY3QyMQ0wCwYDVQQDDARwMkNBMB4XDTE3MTEyOTAwNDkxOFoXDTE4
MTEyOTAwNDkxOFowZTELMAkGA1UEBhMCVVMxEDAOBgNVBAgMB0dlb3JnaWExEDAO
BgNVBAcMB0F0bGFudGExDzANBgNVBAoMBkdhVGVjaDEPMA0GA1UECwwGY3M2MjM4
MRAwDgYDVQQDDAdjbGllbnQxMIIBIjANBgkqhkiG9w0BAQEFAAOCAQ8AMIIBCgKC
AQEAuW04A6q7Nd6YM8x4R26Pn2EeB4P+TWH+bMDBpnYDzA1tvz2cKpLlrANu/2qg
P+CQfuXsAMp42Xcdf+ZZfScieFw3cOFvnEoEhx7eFzpdly49jVTOKaY0cz6InUGj
MaFPjzw/hhdn5HUNnuSWmMOXpBshidZgwTgwr1wqujlpXyW83XelML+si4/Ba/zZ
9Qbskc1nLKSGPzs97XnzI3wWNe257JiauI2n1LnwTAba7eFDpPshYC9NPkiWv4a/
8dyCFalFgJPVL7oXKidJNtBU36A5Ojrn6UbmTsJwvURlqyoe6VBkkdivBxQ+27Pf
ovtcPWSHPCw8U8j740A6lHzRrQIDAQABo3sweTAJBgNVHRMEAjAAMCwGCWCGSAGG
+EIBDQQfFh1PcGVuU1NMIEdlbmVyYXRlZCBDZXJ0aWZpY2F0ZTAdBgNVHQ4EFgQU
H4IUMP76KnYAJ+n4b1fPvwQv+A0wHwYDVR0jBBgwFoAUXGNUxaKQDDN2sLVEqfjF
4pEt6RMwDQYJKoZIhvcNAQELBQADggEBAJvnQZ9F0M59rZsgMu46UIZgavs/HOT+
oorig6zF8SXhOF5FwGe4Ld1TVBCO9R4qjtdxi324blnUeFPaZQ2nTwGUE0M/SGDD
Z/XnEy9GVCdWFUaZ7GblHav4xFU61XR+Z+ZMrmJkRORVa+byREwPTyHTZ2GLxiX/
z77vgMLcNn73mkWpUrQaX3j25bnkQVd+iWREVWkc9RyfQ2IFLz3mvvX3Q58hp8ai
hdD0hRk9ZD0ECDBqpwtuWDFmCXJNFe5Z71NLVpZvJc2RKmbCN5vVdvymnJ25We8n
itUA+VzD3nZvnBPOYShl0dXRuYx0L5gu3B2IpIYwjhnFtb/FBAGqWPA=
-----END CERTIFICATE-----
