Certificate:
    Data:
        Version: 3 (0x2)
        Serial Number:
            f9:b4:ef:92:21:2b:87:3f
    Signature Algorithm: sha256WithRSAEncryption
        Issuer: C=US, ST=Georgia, O=cs6238, OU=project2, CN=p2CA
        Validity
            Not Before: Nov 29 00:46:34 2017 GMT
            Not After : Nov 29 00:46:34 2018 GMT
        Subject: C=US, ST=Georgia, L=Atlanta, O=GaTech, OU=cs6238, CN=127.0.0.1
        Subject Public Key Info:
            Public Key Algorithm: rsaEncryption
                Public-Key: (2048 bit)
                Modulus:
                    00:f8:42:37:f0:c3:e3:b5:52:1d:21:b6:27:b2:6a:
                    bf:f8:a7:03:15:9e:9e:16:70:6d:0f:c8:1c:52:98:
                    31:2f:13:c9:42:30:63:9a:77:73:8d:52:90:b2:c9:
                    95:ac:4c:eb:62:ea:6a:22:22:a3:59:c2:97:87:e0:
                    93:16:89:6f:49:0b:6e:d8:28:d5:88:bc:22:02:15:
                    43:1f:e4:c9:17:d7:18:4f:3f:5b:6a:8a:34:6e:46:
                    c5:e7:47:80:9d:0a:f7:db:d0:f1:5e:c3:85:f6:e9:
                    ec:15:2a:e3:1f:f4:c1:9b:0a:8b:3a:d2:da:ba:d6:
                    5f:bf:ae:0a:4d:7b:87:63:53:c7:47:b3:f5:d4:48:
                    ba:d4:6e:dd:b3:b5:1b:1b:e2:f7:51:18:e7:bc:82:
                    78:77:b0:b3:fa:ff:66:9f:8b:9d:1c:bd:c2:83:58:
                    f6:b1:8d:d8:05:a8:4e:05:28:30:f0:28:f4:c3:56:
                    c8:07:73:9e:45:92:43:d9:86:41:4a:5d:fe:ff:52:
                    5e:5f:f2:00:36:15:69:bd:fc:77:e7:33:f3:dd:1f:
                    5d:cb:8d:7e:f3:9c:e3:42:dd:6e:b1:c4:16:c9:11:
                    15:27:88:b4:e2:7b:a6:d5:dd:e7:b8:d0:4e:06:a5:
                    d5:f0:c1:02:24:56:84:f9:6f:c2:33:4f:c8:c0:f1:
                    85:fd
                Exponent: 65537 (0x10001)
        X509v3 extensions:
            X509v3 Basic Constraints: 
                CA:FALSE
            Netscape Comment: 
                OpenSSL Generated Certificate
            X509v3 Subject Key Identifier: 
                F5:18:0F:21:7E:1E:66:8E:1C:A5:5C:D9:30:6E:CE:6A:83:26:9C:62
            X509v3 Authority Key Identifier: 
                keyid:5C:63:54:C5:A2:90:0C:33:76:B0:B5:44:A9:F8:C5:E2:91:2D:E9:13

    Signature Algorithm: sha256WithRSAEncryption
         9f:26:8b:b9:de:48:af:9b:01:bc:87:ab:81:d3:0e:5a:5b:09:
         aa:7f:26:a1:3c:d7:fe:ed:a6:dd:f2:83:46:13:b0:bf:78:a7:
         4b:db:67:8a:79:3f:57:c1:7e:03:27:37:5f:58:06:0d:f9:1c:
         b5:b8:e5:c4:dc:2f:53:3b:75:da:ae:68:5a:98:c0:e2:04:22:
         f0:e7:a8:4f:8d:92:17:54:63:24:1f:c5:e4:6c:41:e8:e8:68:
         3c:9f:32:6a:92:f9:fd:70:41:e1:66:83:fc:d7:71:a5:77:b2:
         9c:c3:e6:7c:1e:86:59:e8:57:05:85:be:de:b3:dc:01:ae:63:
         97:f1:dc:8b:bc:8a:46:3f:36:e3:b0:bf:6b:18:b5:48:0d:d3:
         28:0e:ac:b8:ec:aa:4c:0a:a8:dc:9e:e7:53:ef:15:af:4a:20:
         4b:40:bb:0a:62:7f:05:48:34:52:0d:1e:44:1e:59:90:4f:fb:
         52:9a:95:3b:77:d2:0a:b5:6b:03:3e:99:54:fe:d8:94:2a:34:
         f9:2b:5e:24:53:8d:7b:41:a3:4a:06:d4:b5:50:be:31:a6:93:
         c7:06:ec:c8:76:d0:88:ff:c9:c7:c2:33:17:0a:d2:49:bc:c6:
         e3:39:57:35:92:bf:99:36:41:32:40:6a:79:94:af:2e:be:ad:
         49:05:3b:d9
-----BEGIN CERTIFICATE-----
MIIDtzCCAp+gAwIBAgIJAPm075IhK4c/MA0GCSqGSIb3DQEBCwUAMFIxCzAJBgNV
BAYTAlVTMRAwDgYDVQQIDAdHZW9yZ2lhMQ8wDQYDVQQKDAZjczYyMzgxETAPBgNV
BAsMCHByb2plY3QyMQ0wCwYDVQQDDARwMkNBMB4XDTE3MTEyOTAwNDYzNFoXDTE4
MTEyOTAwNDYzNFowZzELMAkGA1UEBhMCVVMxEDAOBgNVBAgMB0dlb3JnaWExEDAO
BgNVBAcMB0F0bGFudGExDzANBgNVBAoMBkdhVGVjaDEPMA0GA1UECwwGY3M2MjM4
MRIwEAYDVQQDDAkxMjcuMC4wLjEwggEiMA0GCSqGSIb3DQEBAQUAA4IBDwAwggEK
AoIBAQD4Qjfww+O1Uh0htieyar/4pwMVnp4WcG0PyBxSmDEvE8lCMGOad3ONUpCy
yZWsTOti6moiIqNZwpeH4JMWiW9JC27YKNWIvCICFUMf5MkX1xhPP1tqijRuRsXn
R4CdCvfb0PFew4X26ewVKuMf9MGbCos60tq61l+/rgpNe4djU8dHs/XUSLrUbt2z
tRsb4vdRGOe8gnh3sLP6/2afi50cvcKDWPaxjdgFqE4FKDDwKPTDVsgHc55FkkPZ
hkFKXf7/Ul5f8gA2FWm9/HfnM/PdH13LjX7znONC3W6xxBbJERUniLTie6bV3ee4
0E4GpdXwwQIkVoT5b8IzT8jA8YX9AgMBAAGjezB5MAkGA1UdEwQCMAAwLAYJYIZI
AYb4QgENBB8WHU9wZW5TU0wgR2VuZXJhdGVkIENlcnRpZmljYXRlMB0GA1UdDgQW
BBT1GA8hfh5mjhylXNkwbs5qgyacYjAfBgNVHSMEGDAWgBRcY1TFopAMM3awtUSp
+MXikS3pEzANBgkqhkiG9w0BAQsFAAOCAQEAnyaLud5Ir5sBvIergdMOWlsJqn8m
oTzX/u2m3fKDRhOwv3inS9tnink/V8F+Ayc3X1gGDfkctbjlxNwvUzt12q5oWpjA
4gQi8OeoT42SF1RjJB/F5GxB6OhoPJ8yapL5/XBB4WaD/NdxpXeynMPmfB6GWehX
BYW+3rPcAa5jl/Hci7yKRj8247C/axi1SA3TKA6suOyqTAqo3J7nU+8Vr0ogS0C7
CmJ/BUg0Ug0eRB5ZkE/7UpqVO3fSCrVrAz6ZVP7YlCo0+SteJFONe0GjSgbUtVC+
MaaTxwbsyHbQiP/Jx8IzFwrSSbzG4zlXNZK/mTZBMkBqeZSvLr6tSQU72Q==
-----END CERTIFICATE-----
